; Function Attrs: nounwind uwtable
define hidden range(i32 0, 2) i32 @luaV_tointeger(ptr noundef readonly captures(none) %0, ptr noundef writeonly captures(none) %1, i32 noundef %2) local_unnamed_addr #0 {
  %4 = alloca %struct.TValue, align 8
  call void @llvm.lifetime.start.p0(i64 16, ptr nonnull %4) #13
  %5 = getelementptr inbounds nuw i8, ptr %0, i64 8
  %6 = load i8, ptr %5, align 8, !tbaa !4
  %7 = and i8 %6, 15
  %8 = icmp eq i8 %7, 4
  br i1 %8, label %9, label %26

9:                                                ; preds = %3
  %10 = load ptr, ptr %0, align 8, !tbaa !8
  %11 = getelementptr inbounds nuw i8, ptr %10, i64 11
  %12 = load i8, ptr %11, align 1, !tbaa !9
  %13 = icmp sgt i8 %12, -1
  br i1 %13, label %14, label %17

14:                                               ; preds = %9
  %15 = zext nneg i8 %12 to i64
  %16 = getelementptr inbounds nuw i8, ptr %10, i64 24
  br label %l_strton.exit

17:                                               ; preds = %9
  %18 = getelementptr inbounds nuw i8, ptr %10, i64 16
  %19 = load i64, ptr %18, align 8, !tbaa !8
  %20 = getelementptr inbounds nuw i8, ptr %10, i64 24
  %21 = load ptr, ptr %20, align 8, !tbaa !15
  br label %l_strton.exit

l_strton.exit:                                    ; preds = %14, %17
  %.010.i = phi i64 [ %15, %14 ], [ %19, %17 ]
  %22 = phi ptr [ %16, %14 ], [ %21, %17 ]
  %23 = call i64 @luaO_str2num(ptr noundef %22, ptr noundef nonnull %4) #13
  %24 = add i64 %.010.i, 1
  %25 = icmp ne i64 %23, %24
  %cond.fr = freeze i1 %25
  %.sroa.gep4 = getelementptr inbounds nuw i8, ptr %4, i64 8
  %.ph = select i1 %cond.fr, ptr %0, ptr %4
  %.ph15 = select i1 %cond.fr, ptr %5, ptr %.sroa.gep4
  %.pr = load i8, ptr %.ph15, align 8, !tbaa !4
  br label %26

26:                                               ; preds = %l_strton.exit, %3
  %27 = phi i8 [ %.pr, %l_strton.exit ], [ %6, %3 ]
  %28 = phi ptr [ %.ph, %l_strton.exit ], [ %0, %3 ]
  switch i8 %27, label %luaV_tointegerns.exit [
    i8 19, label %29
    i8 3, label %43
  ]

29:                                               ; preds = %26
  %30 = load double, ptr %28, align 8, !tbaa !8
  %31 = call double @llvm.floor.f64(double %30)
  %32 = fcmp une double %30, %31
  br i1 %32, label %33, label %36

33:                                               ; preds = %29
  switch i32 %2, label %36 [
    i32 0, label %luaV_tointegerns.exit
    i32 2, label %34
  ]

34:                                               ; preds = %33
  %35 = fadd double %31, 1.000000e+00
  br label %36

36:                                               ; preds = %34, %33, %29
  %.0.i.i = phi double [ %35, %34 ], [ %31, %29 ], [ %31, %33 ]
  %37 = fcmp oge double %.0.i.i, 0xC3E0000000000000
  %38 = fcmp olt double %.0.i.i, 0x43E0000000000000
  %or.cond.i.i = and i1 %37, %38
  br i1 %or.cond.i.i, label %39, label %41

39:                                               ; preds = %36
  %40 = fptosi double %.0.i.i to i64
  store i64 %40, ptr %1, align 8, !tbaa !18
  br label %41

41:                                               ; preds = %39, %36
  %42 = zext i1 %or.cond.i.i to i32
  br label %luaV_tointegerns.exit

43:                                               ; preds = %26
  %44 = load i64, ptr %28, align 8, !tbaa !8
  store i64 %44, ptr %1, align 8, !tbaa !18
  br label %luaV_tointegerns.exit

luaV_tointegerns.exit:                            ; preds = %26, %33, %41, %43
  %.0.i3 = phi i32 [ 1, %43 ], [ 0, %26 ], [ %42, %41 ], [ %2, %33 ]
  call void @llvm.lifetime.end.p0(i64 16, ptr nonnull %4) #13
  ret i32 %.0.i3
}